; Function Attrs: cold inlinehint noreturn nounwind uwtable
define internal fastcc void @err_sys_with_errno(ptr noundef %0) unnamed_addr #15 {
  %2 = load ptr, ptr @stderr, align 8, !tbaa !22
  %3 = tail call ptr @__errno_location() #29
  %4 = load i32, ptr %3, align 4, !tbaa !67
  %5 = tail call ptr @strerror(i32 noundef %4) #27
  %6 = tail call i32 (ptr, ptr, ...) @fprintf(ptr noundef %2, ptr noundef nonnull @.str.1060, ptr noundef %0, ptr noundef %5) #28
  tail call void @exit(i32 noundef 1) #35
  unreachable
}